target datalayout = "e-m:e-p270:32:32-p271:32:32-p272:64:64-i64:64-i128:128-f80:128-n8:16:32:64-S128"
target triple = "x86_64-pc-linux-gnu"

@l___private_Lean_Compiler_LCNF_SpecInfo_0__Lean_Compiler_LCNF_reprSpecParamInfo____x40_Lean_Compiler_LCNF_SpecInfo___hyg_18____closed__5 = internal global ptr null, align 8
@l___private_Lean_Compiler_LCNF_SpecInfo_0__Lean_Compiler_LCNF_reprSpecParamInfo____x40_Lean_Compiler_LCNF_SpecInfo___hyg_18____closed__8 = internal global ptr null, align 8
@l___private_Lean_Compiler_LCNF_SpecInfo_0__Lean_Compiler_LCNF_reprSpecParamInfo____x40_Lean_Compiler_LCNF_SpecInfo___hyg_18____closed__12 = internal global ptr null, align 8
@l___private_Lean_Compiler_LCNF_SpecInfo_0__Lean_Compiler_LCNF_reprSpecParamInfo____x40_Lean_Compiler_LCNF_SpecInfo___hyg_18____closed__14 = internal global ptr null, align 8
@l___private_Lean_Compiler_LCNF_SpecInfo_0__Lean_Compiler_LCNF_reprSpecParamInfo____x40_Lean_Compiler_LCNF_SpecInfo___hyg_18____closed__18 = internal global ptr null, align 8
@l___private_Lean_Compiler_LCNF_SpecInfo_0__Lean_Compiler_LCNF_reprSpecParamInfo____x40_Lean_Compiler_LCNF_SpecInfo___hyg_18____closed__20 = internal global ptr null, align 8
@l___private_Lean_Compiler_LCNF_SpecInfo_0__Lean_Compiler_LCNF_reprSpecParamInfo____x40_Lean_Compiler_LCNF_SpecInfo___hyg_18____closed__24 = internal global ptr null, align 8
@l___private_Lean_Compiler_LCNF_SpecInfo_0__Lean_Compiler_LCNF_reprSpecParamInfo____x40_Lean_Compiler_LCNF_SpecInfo___hyg_18____closed__26 = internal global ptr null, align 8
@l___private_Lean_Compiler_LCNF_SpecInfo_0__Lean_Compiler_LCNF_reprSpecParamInfo____x40_Lean_Compiler_LCNF_SpecInfo___hyg_18____closed__30 = internal global ptr null, align 8
@l___private_Lean_Compiler_LCNF_SpecInfo_0__Lean_Compiler_LCNF_reprSpecParamInfo____x40_Lean_Compiler_LCNF_SpecInfo___hyg_18____closed__32 = internal global ptr null, align 8

; Function Attrs: alwaysinline nounwind uwtable
define internal zeroext i1 @lean_is_scalar(ptr noundef %0) #1 {
  %2 = alloca ptr, align 8
  store ptr %0, ptr %2, align 8, !tbaa !8
  %3 = load ptr, ptr %2, align 8, !tbaa !8
  %4 = ptrtoint ptr %3 to i64
  %5 = and i64 %4, 1
  %6 = icmp eq i64 %5, 1
  ret i1 %6
}

; Function Attrs: inlinehint nounwind uwtable
define internal ptr @lean_box(i64 noundef %0) #0 {
  %2 = alloca i64, align 8
  store i64 %0, ptr %2, align 8, !tbaa !4
  %3 = load i64, ptr %2, align 8, !tbaa !4
  %4 = shl i64 %3, 1
  %5 = or i64 %4, 1
  %6 = inttoptr i64 %5 to ptr
  ret ptr %6
}

; Function Attrs: alwaysinline nounwind uwtable
define internal zeroext i1 @lean_nat_le(ptr noundef %0, ptr noundef %1) #1 {
  %3 = alloca i1, align 1
  %4 = alloca ptr, align 8
  %5 = alloca ptr, align 8
  store ptr %0, ptr %4, align 8, !tbaa !8
  store ptr %1, ptr %5, align 8, !tbaa !8
  %6 = load ptr, ptr %4, align 8, !tbaa !8
  %7 = call zeroext i1 @lean_is_scalar(ptr noundef %6)
  br i1 %7, label %8, label %11

8:                                                ; preds = %2
  %9 = load ptr, ptr %5, align 8, !tbaa !8
  %10 = call zeroext i1 @lean_is_scalar(ptr noundef %9)
  br label %11

11:                                               ; preds = %8, %2
  %12 = phi i1 [ false, %2 ], [ %10, %8 ]
  %13 = zext i1 %12 to i32
  %14 = sext i32 %13 to i64
  %15 = call i64 @llvm.expect.i64(i64 %14, i64 1)
  %16 = icmp ne i64 %15, 0
  br i1 %16, label %17, label %21

17:                                               ; preds = %11
  %18 = load ptr, ptr %4, align 8, !tbaa !8
  %19 = load ptr, ptr %5, align 8, !tbaa !8
  %20 = icmp ule ptr %18, %19
  store i1 %20, ptr %3, align 1
  br label %25

21:                                               ; preds = %11
  %22 = load ptr, ptr %4, align 8, !tbaa !8
  %23 = load ptr, ptr %5, align 8, !tbaa !8
  %24 = call zeroext i1 @lean_nat_big_le(ptr noundef %22, ptr noundef %23)
  store i1 %24, ptr %3, align 1
  br label %25

25:                                               ; preds = %21, %17
  %26 = load i1, ptr %3, align 1
  ret i1 %26
}

; Function Attrs: inlinehint nounwind uwtable
define internal ptr @lean_usize_to_nat(i64 noundef %0) #0 {
  %2 = alloca ptr, align 8
  %3 = alloca i64, align 8
  store i64 %0, ptr %3, align 8, !tbaa !4
  %4 = load i64, ptr %3, align 8, !tbaa !4
  %5 = icmp ule i64 %4, 9223372036854775807
  %6 = zext i1 %5 to i32
  %7 = sext i32 %6 to i64
  %8 = call i64 @llvm.expect.i64(i64 %7, i64 1)
  %9 = icmp ne i64 %8, 0
  br i1 %9, label %10, label %13

10:                                               ; preds = %1
  %11 = load i64, ptr %3, align 8, !tbaa !4
  %12 = call ptr @lean_box(i64 noundef %11)
  store ptr %12, ptr %2, align 8
  br label %16

13:                                               ; preds = %1
  %14 = load i64, ptr %3, align 8, !tbaa !4
  %15 = call ptr @lean_big_usize_to_nat(i64 noundef %14)
  store ptr %15, ptr %2, align 8
  br label %16

16:                                               ; preds = %13, %10
  %17 = load ptr, ptr %2, align 8
  ret ptr %17
}

; Function Attrs: alwaysinline nounwind uwtable
define internal zeroext i8 @lean_nat_dec_le(ptr noundef %0, ptr noundef %1) #1 {
  %3 = alloca ptr, align 8
  %4 = alloca ptr, align 8
  store ptr %0, ptr %3, align 8, !tbaa !8
  store ptr %1, ptr %4, align 8, !tbaa !8
  %5 = load ptr, ptr %3, align 8, !tbaa !8
  %6 = load ptr, ptr %4, align 8, !tbaa !8
  %7 = call zeroext i1 @lean_nat_le(ptr noundef %5, ptr noundef %6)
  %8 = zext i1 %7 to i8
  ret i8 %8
}

; Function Attrs: inlinehint nounwind uwtable
define internal ptr @lean_unsigned_to_nat(i32 noundef %0) #0 {
  %2 = alloca i32, align 4
  store i32 %0, ptr %2, align 4, !tbaa !11
  %3 = load i32, ptr %2, align 4, !tbaa !11
  %4 = zext i32 %3 to i64
  %5 = call ptr @lean_usize_to_nat(i64 noundef %4)
  ret ptr %5
}

; Function Attrs: nounwind uwtable
define ptr @l___private_Lean_Compiler_LCNF_SpecInfo_0__Lean_Compiler_LCNF_reprSpecParamInfo____x40_Lean_Compiler_LCNF_SpecInfo___hyg_18_(i8 noundef zeroext %0, ptr noundef %1) #2 {
  %3 = alloca ptr, align 8
  %4 = alloca i8, align 1
  %5 = alloca ptr, align 8
  %6 = alloca ptr, align 8
  %7 = alloca i8, align 1
  %8 = alloca ptr, align 8
  %9 = alloca ptr, align 8
  %10 = alloca i32, align 4
  %11 = alloca ptr, align 8
  %12 = alloca ptr, align 8
  %13 = alloca ptr, align 8
  %14 = alloca i8, align 1
  %15 = alloca ptr, align 8
  %16 = alloca ptr, align 8
  %17 = alloca ptr, align 8
  %18 = alloca ptr, align 8
  %19 = alloca ptr, align 8
  %20 = alloca i8, align 1
  %21 = alloca ptr, align 8
  %22 = alloca ptr, align 8
  %23 = alloca ptr, align 8
  %24 = alloca ptr, align 8
  %25 = alloca ptr, align 8
  %26 = alloca i8, align 1
  %27 = alloca ptr, align 8
  %28 = alloca ptr, align 8
  %29 = alloca ptr, align 8
  %30 = alloca ptr, align 8
  %31 = alloca ptr, align 8
  %32 = alloca i8, align 1
  %33 = alloca ptr, align 8
  %34 = alloca ptr, align 8
  %35 = alloca ptr, align 8
  %36 = alloca ptr, align 8
  store i8 %0, ptr %4, align 1, !tbaa !10
  store ptr %1, ptr %5, align 8, !tbaa !8
  br label %37

37:                                               ; preds = %2
  %38 = load i8, ptr %4, align 1, !tbaa !10
  %39 = zext i8 %38 to i32
  switch i32 %39, label %124 [
    i32 0, label %40
    i32 1, label %61
    i32 2, label %82
    i32 3, label %103
  ]

40:                                               ; preds = %37
  call void @llvm.lifetime.start.p0(i64 8, ptr %6) #7
  call void @llvm.lifetime.start.p0(i64 1, ptr %7) #7
  %41 = call ptr @lean_unsigned_to_nat(i32 noundef 1024)
  store ptr %41, ptr %6, align 8, !tbaa !8
  %42 = load ptr, ptr %6, align 8, !tbaa !8
  %43 = load ptr, ptr %5, align 8, !tbaa !8
  %44 = call zeroext i8 @lean_nat_dec_le(ptr noundef %42, ptr noundef %43)
  store i8 %44, ptr %7, align 1, !tbaa !10
  %45 = load i8, ptr %7, align 1, !tbaa !10
  %46 = zext i8 %45 to i32
  %47 = icmp eq i32 %46, 0
  br i1 %47, label %48, label %54

48:                                               ; preds = %40
  call void @llvm.lifetime.start.p0(i64 8, ptr %8) #7
  call void @llvm.lifetime.start.p0(i64 8, ptr %9) #7
  %49 = load ptr, ptr @l___private_Lean_Compiler_LCNF_SpecInfo_0__Lean_Compiler_LCNF_reprSpecParamInfo____x40_Lean_Compiler_LCNF_SpecInfo___hyg_18____closed__5, align 8, !tbaa !8
  store ptr %49, ptr %8, align 8, !tbaa !8
  %50 = load ptr, ptr %8, align 8, !tbaa !8
  %51 = load ptr, ptr %5, align 8, !tbaa !8
  %52 = call ptr @l_Repr_addAppParen(ptr noundef %50, ptr noundef %51)
  store ptr %52, ptr %9, align 8, !tbaa !8
  %53 = load ptr, ptr %9, align 8, !tbaa !8
  store ptr %53, ptr %3, align 8
  store i32 1, ptr %10, align 4
  call void @llvm.lifetime.end.p0(i64 8, ptr %9) #7
  call void @llvm.lifetime.end.p0(i64 8, ptr %8) #7
  br label %60

54:                                               ; preds = %40
  call void @llvm.lifetime.start.p0(i64 8, ptr %11) #7
  call void @llvm.lifetime.start.p0(i64 8, ptr %12) #7
  %55 = load ptr, ptr @l___private_Lean_Compiler_LCNF_SpecInfo_0__Lean_Compiler_LCNF_reprSpecParamInfo____x40_Lean_Compiler_LCNF_SpecInfo___hyg_18____closed__8, align 8, !tbaa !8
  store ptr %55, ptr %11, align 8, !tbaa !8
  %56 = load ptr, ptr %11, align 8, !tbaa !8
  %57 = load ptr, ptr %5, align 8, !tbaa !8
  %58 = call ptr @l_Repr_addAppParen(ptr noundef %56, ptr noundef %57)
  store ptr %58, ptr %12, align 8, !tbaa !8
  %59 = load ptr, ptr %12, align 8, !tbaa !8
  store ptr %59, ptr %3, align 8
  store i32 1, ptr %10, align 4
  call void @llvm.lifetime.end.p0(i64 8, ptr %12) #7
  call void @llvm.lifetime.end.p0(i64 8, ptr %11) #7
  br label %60

60:                                               ; preds = %54, %48
  call void @llvm.lifetime.end.p0(i64 1, ptr %7) #7
  call void @llvm.lifetime.end.p0(i64 8, ptr %6) #7
  br label %145

61:                                               ; preds = %37
  call void @llvm.lifetime.start.p0(i64 8, ptr %13) #7
  call void @llvm.lifetime.start.p0(i64 1, ptr %14) #7
  %62 = call ptr @lean_unsigned_to_nat(i32 noundef 1024)
  store ptr %62, ptr %13, align 8, !tbaa !8
  %63 = load ptr, ptr %13, align 8, !tbaa !8
  %64 = load ptr, ptr %5, align 8, !tbaa !8
  %65 = call zeroext i8 @lean_nat_dec_le(ptr noundef %63, ptr noundef %64)
  store i8 %65, ptr %14, align 1, !tbaa !10
  %66 = load i8, ptr %14, align 1, !tbaa !10
  %67 = zext i8 %66 to i32
  %68 = icmp eq i32 %67, 0
  br i1 %68, label %69, label %75

69:                                               ; preds = %61
  call void @llvm.lifetime.start.p0(i64 8, ptr %15) #7
  call void @llvm.lifetime.start.p0(i64 8, ptr %16) #7
  %70 = load ptr, ptr @l___private_Lean_Compiler_LCNF_SpecInfo_0__Lean_Compiler_LCNF_reprSpecParamInfo____x40_Lean_Compiler_LCNF_SpecInfo___hyg_18____closed__12, align 8, !tbaa !8
  store ptr %70, ptr %15, align 8, !tbaa !8
  %71 = load ptr, ptr %15, align 8, !tbaa !8
  %72 = load ptr, ptr %5, align 8, !tbaa !8
  %73 = call ptr @l_Repr_addAppParen(ptr noundef %71, ptr noundef %72)
  store ptr %73, ptr %16, align 8, !tbaa !8
  %74 = load ptr, ptr %16, align 8, !tbaa !8
  store ptr %74, ptr %3, align 8
  store i32 1, ptr %10, align 4
  call void @llvm.lifetime.end.p0(i64 8, ptr %16) #7
  call void @llvm.lifetime.end.p0(i64 8, ptr %15) #7
  br label %81

75:                                               ; preds = %61
  call void @llvm.lifetime.start.p0(i64 8, ptr %17) #7
  call void @llvm.lifetime.start.p0(i64 8, ptr %18) #7
  %76 = load ptr, ptr @l___private_Lean_Compiler_LCNF_SpecInfo_0__Lean_Compiler_LCNF_reprSpecParamInfo____x40_Lean_Compiler_LCNF_SpecInfo___hyg_18____closed__14, align 8, !tbaa !8
  store ptr %76, ptr %17, align 8, !tbaa !8
  %77 = load ptr, ptr %17, align 8, !tbaa !8
  %78 = load ptr, ptr %5, align 8, !tbaa !8
  %79 = call ptr @l_Repr_addAppParen(ptr noundef %77, ptr noundef %78)
  store ptr %79, ptr %18, align 8, !tbaa !8
  %80 = load ptr, ptr %18, align 8, !tbaa !8
  store ptr %80, ptr %3, align 8
  store i32 1, ptr %10, align 4
  call void @llvm.lifetime.end.p0(i64 8, ptr %18) #7
  call void @llvm.lifetime.end.p0(i64 8, ptr %17) #7
  br label %81

81:                                               ; preds = %75, %69
  call void @llvm.lifetime.end.p0(i64 1, ptr %14) #7
  call void @llvm.lifetime.end.p0(i64 8, ptr %13) #7
  br label %145

82:                                               ; preds = %37
  call void @llvm.lifetime.start.p0(i64 8, ptr %19) #7
  call void @llvm.lifetime.start.p0(i64 1, ptr %20) #7
  %83 = call ptr @lean_unsigned_to_nat(i32 noundef 1024)
  store ptr %83, ptr %19, align 8, !tbaa !8
  %84 = load ptr, ptr %19, align 8, !tbaa !8
  %85 = load ptr, ptr %5, align 8, !tbaa !8
  %86 = call zeroext i8 @lean_nat_dec_le(ptr noundef %84, ptr noundef %85)
  store i8 %86, ptr %20, align 1, !tbaa !10
  %87 = load i8, ptr %20, align 1, !tbaa !10
  %88 = zext i8 %87 to i32
  %89 = icmp eq i32 %88, 0
  br i1 %89, label %90, label %96

90:                                               ; preds = %82
  call void @llvm.lifetime.start.p0(i64 8, ptr %21) #7
  call void @llvm.lifetime.start.p0(i64 8, ptr %22) #7
  %91 = load ptr, ptr @l___private_Lean_Compiler_LCNF_SpecInfo_0__Lean_Compiler_LCNF_reprSpecParamInfo____x40_Lean_Compiler_LCNF_SpecInfo___hyg_18____closed__18, align 8, !tbaa !8
  store ptr %91, ptr %21, align 8, !tbaa !8
  %92 = load ptr, ptr %21, align 8, !tbaa !8
  %93 = load ptr, ptr %5, align 8, !tbaa !8
  %94 = call ptr @l_Repr_addAppParen(ptr noundef %92, ptr noundef %93)
  store ptr %94, ptr %22, align 8, !tbaa !8
  %95 = load ptr, ptr %22, align 8, !tbaa !8
  store ptr %95, ptr %3, align 8
  store i32 1, ptr %10, align 4
  call void @llvm.lifetime.end.p0(i64 8, ptr %22) #7
  call void @llvm.lifetime.end.p0(i64 8, ptr %21) #7
  br label %102

96:                                               ; preds = %82
  call void @llvm.lifetime.start.p0(i64 8, ptr %23) #7
  call void @llvm.lifetime.start.p0(i64 8, ptr %24) #7
  %97 = load ptr, ptr @l___private_Lean_Compiler_LCNF_SpecInfo_0__Lean_Compiler_LCNF_reprSpecParamInfo____x40_Lean_Compiler_LCNF_SpecInfo___hyg_18____closed__20, align 8, !tbaa !8
  store ptr %97, ptr %23, align 8, !tbaa !8
  %98 = load ptr, ptr %23, align 8, !tbaa !8
  %99 = load ptr, ptr %5, align 8, !tbaa !8
  %100 = call ptr @l_Repr_addAppParen(ptr noundef %98, ptr noundef %99)
  store ptr %100, ptr %24, align 8, !tbaa !8
  %101 = load ptr, ptr %24, align 8, !tbaa !8
  store ptr %101, ptr %3, align 8
  store i32 1, ptr %10, align 4
  call void @llvm.lifetime.end.p0(i64 8, ptr %24) #7
  call void @llvm.lifetime.end.p0(i64 8, ptr %23) #7
  br label %102

102:                                              ; preds = %96, %90
  call void @llvm.lifetime.end.p0(i64 1, ptr %20) #7
  call void @llvm.lifetime.end.p0(i64 8, ptr %19) #7
  br label %145

103:                                              ; preds = %37
  call void @llvm.lifetime.start.p0(i64 8, ptr %25) #7
  call void @llvm.lifetime.start.p0(i64 1, ptr %26) #7
  %104 = call ptr @lean_unsigned_to_nat(i32 noundef 1024)
  store ptr %104, ptr %25, align 8, !tbaa !8
  %105 = load ptr, ptr %25, align 8, !tbaa !8
  %106 = load ptr, ptr %5, align 8, !tbaa !8
  %107 = call zeroext i8 @lean_nat_dec_le(ptr noundef %105, ptr noundef %106)
  store i8 %107, ptr %26, align 1, !tbaa !10
  %108 = load i8, ptr %26, align 1, !tbaa !10
  %109 = zext i8 %108 to i32
  %110 = icmp eq i32 %109, 0
  br i1 %110, label %111, label %117

111:                                              ; preds = %103
  call void @llvm.lifetime.start.p0(i64 8, ptr %27) #7
  call void @llvm.lifetime.start.p0(i64 8, ptr %28) #7
  %112 = load ptr, ptr @l___private_Lean_Compiler_LCNF_SpecInfo_0__Lean_Compiler_LCNF_reprSpecParamInfo____x40_Lean_Compiler_LCNF_SpecInfo___hyg_18____closed__24, align 8, !tbaa !8
  store ptr %112, ptr %27, align 8, !tbaa !8
  %113 = load ptr, ptr %27, align 8, !tbaa !8
  %114 = load ptr, ptr %5, align 8, !tbaa !8
  %115 = call ptr @l_Repr_addAppParen(ptr noundef %113, ptr noundef %114)
  store ptr %115, ptr %28, align 8, !tbaa !8
  %116 = load ptr, ptr %28, align 8, !tbaa !8
  store ptr %116, ptr %3, align 8
  store i32 1, ptr %10, align 4
  call void @llvm.lifetime.end.p0(i64 8, ptr %28) #7
  call void @llvm.lifetime.end.p0(i64 8, ptr %27) #7
  br label %123

117:                                              ; preds = %103
  call void @llvm.lifetime.start.p0(i64 8, ptr %29) #7
  call void @llvm.lifetime.start.p0(i64 8, ptr %30) #7
  %118 = load ptr, ptr @l___private_Lean_Compiler_LCNF_SpecInfo_0__Lean_Compiler_LCNF_reprSpecParamInfo____x40_Lean_Compiler_LCNF_SpecInfo___hyg_18____closed__26, align 8, !tbaa !8
  store ptr %118, ptr %29, align 8, !tbaa !8
  %119 = load ptr, ptr %29, align 8, !tbaa !8
  %120 = load ptr, ptr %5, align 8, !tbaa !8
  %121 = call ptr @l_Repr_addAppParen(ptr noundef %119, ptr noundef %120)
  store ptr %121, ptr %30, align 8, !tbaa !8
  %122 = load ptr, ptr %30, align 8, !tbaa !8
  store ptr %122, ptr %3, align 8
  store i32 1, ptr %10, align 4
  call void @llvm.lifetime.end.p0(i64 8, ptr %30) #7
  call void @llvm.lifetime.end.p0(i64 8, ptr %29) #7
  br label %123

123:                                              ; preds = %117, %111
  call void @llvm.lifetime.end.p0(i64 1, ptr %26) #7
  call void @llvm.lifetime.end.p0(i64 8, ptr %25) #7
  br label %145

124:                                              ; preds = %37
  call void @llvm.lifetime.start.p0(i64 8, ptr %31) #7
  call void @llvm.lifetime.start.p0(i64 1, ptr %32) #7
  %125 = call ptr @lean_unsigned_to_nat(i32 noundef 1024)
  store ptr %125, ptr %31, align 8, !tbaa !8
  %126 = load ptr, ptr %31, align 8, !tbaa !8
  %127 = load ptr, ptr %5, align 8, !tbaa !8
  %128 = call zeroext i8 @lean_nat_dec_le(ptr noundef %126, ptr noundef %127)
  store i8 %128, ptr %32, align 1, !tbaa !10
  %129 = load i8, ptr %32, align 1, !tbaa !10
  %130 = zext i8 %129 to i32
  %131 = icmp eq i32 %130, 0
  br i1 %131, label %132, label %138

132:                                              ; preds = %124
  call void @llvm.lifetime.start.p0(i64 8, ptr %33) #7
  call void @llvm.lifetime.start.p0(i64 8, ptr %34) #7
  %133 = load ptr, ptr @l___private_Lean_Compiler_LCNF_SpecInfo_0__Lean_Compiler_LCNF_reprSpecParamInfo____x40_Lean_Compiler_LCNF_SpecInfo___hyg_18____closed__30, align 8, !tbaa !8
  store ptr %133, ptr %33, align 8, !tbaa !8
  %134 = load ptr, ptr %33, align 8, !tbaa !8
  %135 = load ptr, ptr %5, align 8, !tbaa !8
  %136 = call ptr @l_Repr_addAppParen(ptr noundef %134, ptr noundef %135)
  store ptr %136, ptr %34, align 8, !tbaa !8
  %137 = load ptr, ptr %34, align 8, !tbaa !8
  store ptr %137, ptr %3, align 8
  store i32 1, ptr %10, align 4
  call void @llvm.lifetime.end.p0(i64 8, ptr %34) #7
  call void @llvm.lifetime.end.p0(i64 8, ptr %33) #7
  br label %144

138:                                              ; preds = %124
  call void @llvm.lifetime.start.p0(i64 8, ptr %35) #7
  call void @llvm.lifetime.start.p0(i64 8, ptr %36) #7
  %139 = load ptr, ptr @l___private_Lean_Compiler_LCNF_SpecInfo_0__Lean_Compiler_LCNF_reprSpecParamInfo____x40_Lean_Compiler_LCNF_SpecInfo___hyg_18____closed__32, align 8, !tbaa !8
  store ptr %139, ptr %35, align 8, !tbaa !8
  %140 = load ptr, ptr %35, align 8, !tbaa !8
  %141 = load ptr, ptr %5, align 8, !tbaa !8
  %142 = call ptr @l_Repr_addAppParen(ptr noundef %140, ptr noundef %141)
  store ptr %142, ptr %36, align 8, !tbaa !8
  %143 = load ptr, ptr %36, align 8, !tbaa !8
  store ptr %143, ptr %3, align 8
  store i32 1, ptr %10, align 4
  call void @llvm.lifetime.end.p0(i64 8, ptr %36) #7
  call void @llvm.lifetime.end.p0(i64 8, ptr %35) #7
  br label %144

144:                                              ; preds = %138, %132
  call void @llvm.lifetime.end.p0(i64 1, ptr %32) #7
  call void @llvm.lifetime.end.p0(i64 8, ptr %31) #7
  br label %145

145:                                              ; preds = %144, %123, %102, %81, %60
  %146 = load ptr, ptr %3, align 8
  ret ptr %146
}