; Function Attrs: nounwind uwtable
define ptr @l___private_Lean_Compiler_LCNF_SpecInfo_0__Lean_Compiler_LCNF_reprSpecParamInfo____x40_Lean_Compiler_LCNF_SpecInfo___hyg_18_(i8 noundef zeroext %0, ptr noundef %1) local_unnamed_addr #2 {
  %3 = ptrtoint ptr %1 to i64
  %4 = and i64 %3, 1
  %.not61 = icmp eq i64 %4, 0
  switch i8 %0, label %21 [
    i8 0, label %5
    i8 1, label %9
    i8 2, label %13
    i8 3, label %17
  ]

5:                                                ; preds = %2
  br i1 %.not61, label %lean_nat_le.exit, label %6, !prof !15

6:                                                ; preds = %5
  %.not64 = icmp ult ptr %1, inttoptr (i64 2049 to ptr)
  br i1 %.not64, label %25, label %8

lean_nat_le.exit:                                 ; preds = %5
  %7 = tail call zeroext i1 @lean_nat_big_le(ptr noundef nonnull inttoptr (i64 2049 to ptr), ptr noundef %1) #8
  br i1 %7, label %8, label %25

8:                                                ; preds = %6, %lean_nat_le.exit
  br label %25

9:                                                ; preds = %2
  br i1 %.not61, label %lean_nat_le.exit48, label %10, !prof !15

10:                                               ; preds = %9
  %.not63 = icmp ult ptr %1, inttoptr (i64 2049 to ptr)
  br i1 %.not63, label %25, label %12

lean_nat_le.exit48:                               ; preds = %9
  %11 = tail call zeroext i1 @lean_nat_big_le(ptr noundef nonnull inttoptr (i64 2049 to ptr), ptr noundef %1) #8
  br i1 %11, label %12, label %25

12:                                               ; preds = %10, %lean_nat_le.exit48
  br label %25

13:                                               ; preds = %2
  br i1 %.not61, label %lean_nat_le.exit51, label %14, !prof !15

14:                                               ; preds = %13
  %.not62 = icmp ult ptr %1, inttoptr (i64 2049 to ptr)
  br i1 %.not62, label %25, label %16

lean_nat_le.exit51:                               ; preds = %13
  %15 = tail call zeroext i1 @lean_nat_big_le(ptr noundef nonnull inttoptr (i64 2049 to ptr), ptr noundef %1) #8
  br i1 %15, label %16, label %25

16:                                               ; preds = %14, %lean_nat_le.exit51
  br label %25

17:                                               ; preds = %2
  br i1 %.not61, label %lean_nat_le.exit54, label %18, !prof !15

18:                                               ; preds = %17
  %.not = icmp ult ptr %1, inttoptr (i64 2049 to ptr)
  br i1 %.not, label %25, label %20

lean_nat_le.exit54:                               ; preds = %17
  %19 = tail call zeroext i1 @lean_nat_big_le(ptr noundef nonnull inttoptr (i64 2049 to ptr), ptr noundef %1) #8
  br i1 %19, label %20, label %25

20:                                               ; preds = %18, %lean_nat_le.exit54
  br label %25

21:                                               ; preds = %2
  br i1 %.not61, label %lean_nat_le.exit57, label %22, !prof !15

22:                                               ; preds = %21
  %.not65 = icmp ult ptr %1, inttoptr (i64 2049 to ptr)
  br i1 %.not65, label %25, label %24

lean_nat_le.exit57:                               ; preds = %21
  %23 = tail call zeroext i1 @lean_nat_big_le(ptr noundef nonnull inttoptr (i64 2049 to ptr), ptr noundef %1) #8
  br i1 %23, label %24, label %25

24:                                               ; preds = %22, %lean_nat_le.exit57
  br label %25

25:                                               ; preds = %lean_nat_le.exit57, %22, %lean_nat_le.exit54, %18, %lean_nat_le.exit51, %14, %lean_nat_le.exit48, %10, %lean_nat_le.exit, %6, %24, %20, %16, %12, %8
  %l___private_Lean_Compiler_LCNF_SpecInfo_0__Lean_Compiler_LCNF_reprSpecParamInfo____x40_Lean_Compiler_LCNF_SpecInfo___hyg_18____closed__30.sink = phi ptr [ @l___private_Lean_Compiler_LCNF_SpecInfo_0__Lean_Compiler_LCNF_reprSpecParamInfo____x40_Lean_Compiler_LCNF_SpecInfo___hyg_18____closed__32, %24 ], [ @l___private_Lean_Compiler_LCNF_SpecInfo_0__Lean_Compiler_LCNF_reprSpecParamInfo____x40_Lean_Compiler_LCNF_SpecInfo___hyg_18____closed__26, %20 ], [ @l___private_Lean_Compiler_LCNF_SpecInfo_0__Lean_Compiler_LCNF_reprSpecParamInfo____x40_Lean_Compiler_LCNF_SpecInfo___hyg_18____closed__20, %16 ], [ @l___private_Lean_Compiler_LCNF_SpecInfo_0__Lean_Compiler_LCNF_reprSpecParamInfo____x40_Lean_Compiler_LCNF_SpecInfo___hyg_18____closed__14, %12 ], [ @l___private_Lean_Compiler_LCNF_SpecInfo_0__Lean_Compiler_LCNF_reprSpecParamInfo____x40_Lean_Compiler_LCNF_SpecInfo___hyg_18____closed__8, %8 ], [ @l___private_Lean_Compiler_LCNF_SpecInfo_0__Lean_Compiler_LCNF_reprSpecParamInfo____x40_Lean_Compiler_LCNF_SpecInfo___hyg_18____closed__5, %6 ], [ @l___private_Lean_Compiler_LCNF_SpecInfo_0__Lean_Compiler_LCNF_reprSpecParamInfo____x40_Lean_Compiler_LCNF_SpecInfo___hyg_18____closed__5, %lean_nat_le.exit ], [ @l___private_Lean_Compiler_LCNF_SpecInfo_0__Lean_Compiler_LCNF_reprSpecParamInfo____x40_Lean_Compiler_LCNF_SpecInfo___hyg_18____closed__12, %10 ], [ @l___private_Lean_Compiler_LCNF_SpecInfo_0__Lean_Compiler_LCNF_reprSpecParamInfo____x40_Lean_Compiler_LCNF_SpecInfo___hyg_18____closed__12, %lean_nat_le.exit48 ], [ @l___private_Lean_Compiler_LCNF_SpecInfo_0__Lean_Compiler_LCNF_reprSpecParamInfo____x40_Lean_Compiler_LCNF_SpecInfo___hyg_18____closed__18, %14 ], [ @l___private_Lean_Compiler_LCNF_SpecInfo_0__Lean_Compiler_LCNF_reprSpecParamInfo____x40_Lean_Compiler_LCNF_SpecInfo___hyg_18____closed__18, %lean_nat_le.exit51 ], [ @l___private_Lean_Compiler_LCNF_SpecInfo_0__Lean_Compiler_LCNF_reprSpecParamInfo____x40_Lean_Compiler_LCNF_SpecInfo___hyg_18____closed__24, %18 ], [ @l___private_Lean_Compiler_LCNF_SpecInfo_0__Lean_Compiler_LCNF_reprSpecParamInfo____x40_Lean_Compiler_LCNF_SpecInfo___hyg_18____closed__24, %lean_nat_le.exit54 ], [ @l___private_Lean_Compiler_LCNF_SpecInfo_0__Lean_Compiler_LCNF_reprSpecParamInfo____x40_Lean_Compiler_LCNF_SpecInfo___hyg_18____closed__30, %22 ], [ @l___private_Lean_Compiler_LCNF_SpecInfo_0__Lean_Compiler_LCNF_reprSpecParamInfo____x40_Lean_Compiler_LCNF_SpecInfo___hyg_18____closed__30, %lean_nat_le.exit57 ]
  %26 = load ptr, ptr %l___private_Lean_Compiler_LCNF_SpecInfo_0__Lean_Compiler_LCNF_reprSpecParamInfo____x40_Lean_Compiler_LCNF_SpecInfo___hyg_18____closed__30.sink, align 8, !tbaa !9
  %27 = tail call ptr @l_Repr_addAppParen(ptr noundef %26, ptr noundef %1) #8
  ret ptr %27
}